target datalayout = "e-m:e-p270:32:32-p271:32:32-p272:64:64-i64:64-i128:128-f80:128-n8:16:32:64-S128"
target triple = "x86_64-pc-linux-gnu"

%class.cache_sim_t = type <{ ptr, %class.lfsr_t, [4 x i8], ptr, i64, i64, i64, i64, ptr, i64, i64, i64, i64, i64, i64, i64, %"class.std::__cxx11::basic_string", i8, [7 x i8] }>
%class.lfsr_t = type { i32 }
%"class.std::__cxx11::basic_string" = type { %"struct.std::__cxx11::basic_string<char>::_Alloc_hider", i64, %union.anon }
%"struct.std::__cxx11::basic_string<char>::_Alloc_hider" = type { ptr }
%union.anon = type { i64, [8 x i8] }

@_ZTV11cache_sim_t = unnamed_addr constant { [6 x ptr] } { [6 x ptr] [ptr null, ptr @_ZTI11cache_sim_t, ptr @_ZN11cache_sim_tD1Ev, ptr @_ZN11cache_sim_tD0Ev, ptr @_ZN11cache_sim_t9check_tagEm, ptr @_ZN11cache_sim_t9victimizeEm] }, align 8

; Function Attrs: mustprogress nounwind uwtable
define linkonce_odr void @_ZN6lfsr_tC2Ev(ptr noundef nonnull align 4 dereferenceable(4) %0) unnamed_addr #5 comdat align 2 {
  %2 = alloca ptr, align 8
  store ptr %0, ptr %2, align 8
  %3 = load ptr, ptr %2, align 8
  %4 = getelementptr inbounds %class.lfsr_t, ptr %3, i32 0, i32 0
  store i32 1, ptr %4, align 4
  ret void
}

; Function Attrs: mustprogress uwtable
define void @_ZN11cache_sim_tC2ERKS_(ptr noundef nonnull align 8 dereferenceable(153) %0, ptr noundef nonnull align 8 dereferenceable(153) %1) unnamed_addr #4 align 2 personality ptr @__gxx_personality_v0 {
  %3 = alloca ptr, align 8
  %4 = alloca ptr, align 8
  %5 = alloca ptr, align 8
  %6 = alloca i32, align 4
  store ptr %0, ptr %3, align 8
  store ptr %1, ptr %4, align 8
  %7 = load ptr, ptr %3, align 8
  store ptr getelementptr inbounds ({ [6 x ptr] }, ptr @_ZTV11cache_sim_t, i32 0, i32 0, i32 2), ptr %7, align 8
  %8 = getelementptr inbounds %class.cache_sim_t, ptr %7, i32 0, i32 1
  call void @_ZN6lfsr_tC2Ev(ptr noundef nonnull align 4 dereferenceable(4) %8)
  %9 = getelementptr inbounds %class.cache_sim_t, ptr %7, i32 0, i32 4
  %10 = load ptr, ptr %4, align 8
  %11 = getelementptr inbounds %class.cache_sim_t, ptr %10, i32 0, i32 4
  %12 = load i64, ptr %11, align 8
  store i64 %12, ptr %9, align 8
  %13 = getelementptr inbounds %class.cache_sim_t, ptr %7, i32 0, i32 5
  %14 = load ptr, ptr %4, align 8
  %15 = getelementptr inbounds %class.cache_sim_t, ptr %14, i32 0, i32 5
  %16 = load i64, ptr %15, align 8
  store i64 %16, ptr %13, align 8
  %17 = getelementptr inbounds %class.cache_sim_t, ptr %7, i32 0, i32 6
  %18 = load ptr, ptr %4, align 8
  %19 = getelementptr inbounds %class.cache_sim_t, ptr %18, i32 0, i32 6
  %20 = load i64, ptr %19, align 8
  store i64 %20, ptr %17, align 8
  %21 = getelementptr inbounds %class.cache_sim_t, ptr %7, i32 0, i32 7
  %22 = load ptr, ptr %4, align 8
  %23 = getelementptr inbounds %class.cache_sim_t, ptr %22, i32 0, i32 7
  %24 = load i64, ptr %23, align 8
  store i64 %24, ptr %21, align 8
  %25 = getelementptr inbounds %class.cache_sim_t, ptr %7, i32 0, i32 16
  %26 = load ptr, ptr %4, align 8
  %27 = getelementptr inbounds %class.cache_sim_t, ptr %26, i32 0, i32 16
  call void @_ZNSt7__cxx1112basic_stringIcSt11char_traitsIcESaIcEEC2ERKS4_(ptr noundef nonnull align 8 dereferenceable(32) %25, ptr noundef nonnull align 8 dereferenceable(32) %27)
  %28 = getelementptr inbounds %class.cache_sim_t, ptr %7, i32 0, i32 17
  store i8 0, ptr %28, align 8
  %29 = getelementptr inbounds %class.cache_sim_t, ptr %7, i32 0, i32 4
  %30 = load i64, ptr %29, align 8
  %31 = getelementptr inbounds %class.cache_sim_t, ptr %7, i32 0, i32 5
  %32 = load i64, ptr %31, align 8
  %33 = mul i64 %30, %32
  %34 = call { i64, i1 } @llvm.umul.with.overflow.i64(i64 %33, i64 8)
  %35 = extractvalue { i64, i1 } %34, 1
  %36 = extractvalue { i64, i1 } %34, 0
  %37 = select i1 %35, i64 -1, i64 %36
  %38 = invoke noalias noundef nonnull ptr @_Znam(i64 noundef %37) #16
          to label %39 unwind label %52

39:                                               ; preds = %2
  %40 = getelementptr inbounds %class.cache_sim_t, ptr %7, i32 0, i32 8
  store ptr %38, ptr %40, align 8
  %41 = getelementptr inbounds %class.cache_sim_t, ptr %7, i32 0, i32 8
  %42 = load ptr, ptr %41, align 8
  %43 = load ptr, ptr %4, align 8
  %44 = getelementptr inbounds %class.cache_sim_t, ptr %43, i32 0, i32 8
  %45 = load ptr, ptr %44, align 8
  %46 = getelementptr inbounds %class.cache_sim_t, ptr %7, i32 0, i32 4
  %47 = load i64, ptr %46, align 8
  %48 = getelementptr inbounds %class.cache_sim_t, ptr %7, i32 0, i32 5
  %49 = load i64, ptr %48, align 8
  %50 = mul i64 %47, %49
  %51 = mul i64 %50, 8
  call void @llvm.memcpy.p0.p0.i64(ptr align 8 %42, ptr align 8 %45, i64 %51, i1 false)
  ret void

52:                                               ; preds = %2
  %53 = landingpad { ptr, i32 }
          cleanup
  %54 = extractvalue { ptr, i32 } %53, 0
  store ptr %54, ptr %5, align 8
  %55 = extractvalue { ptr, i32 } %53, 1
  store i32 %55, ptr %6, align 4
  call void @_ZNSt7__cxx1112basic_stringIcSt11char_traitsIcESaIcEED2Ev(ptr noundef nonnull align 8 dereferenceable(32) %25) #3
  br label %56

56:                                               ; preds = %52
  %57 = load ptr, ptr %5, align 8
  %58 = load i32, ptr %6, align 4
  %59 = insertvalue { ptr, i32 } poison, ptr %57, 0
  %60 = insertvalue { ptr, i32 } %59, i32 %58, 1
  resume { ptr, i32 } %60
}