; Function Attrs: mustprogress uwtable
define void @_ZN11cache_sim_tC2ERKS_(ptr noundef nonnull align 8 dereferenceable(153) %0, ptr noundef nonnull align 8 dereferenceable(153) %1) unnamed_addr #3 align 2 personality ptr @__gxx_personality_v0 {
  store ptr getelementptr inbounds ({ [6 x ptr] }, ptr @_ZTV11cache_sim_t, i64 0, i32 0, i64 2), ptr %0, align 8
  %3 = getelementptr inbounds i8, ptr %0, i64 8
  store i32 1, ptr %3, align 8
  %4 = getelementptr inbounds i8, ptr %0, i64 24
  %5 = getelementptr inbounds i8, ptr %1, i64 24
  %6 = load i64, ptr %5, align 8
  store i64 %6, ptr %4, align 8
  %7 = getelementptr inbounds i8, ptr %0, i64 32
  %8 = getelementptr inbounds i8, ptr %1, i64 32
  %9 = load i64, ptr %8, align 8
  store i64 %9, ptr %7, align 8
  %10 = getelementptr inbounds i8, ptr %0, i64 40
  %11 = getelementptr inbounds i8, ptr %1, i64 40
  %12 = load i64, ptr %11, align 8
  store i64 %12, ptr %10, align 8
  %13 = getelementptr inbounds i8, ptr %0, i64 48
  %14 = getelementptr inbounds i8, ptr %1, i64 48
  %15 = load i64, ptr %14, align 8
  store i64 %15, ptr %13, align 8
  %16 = getelementptr inbounds i8, ptr %0, i64 120
  %17 = getelementptr inbounds i8, ptr %1, i64 120
  tail call void @_ZNSt7__cxx1112basic_stringIcSt11char_traitsIcESaIcEEC2ERKS4_(ptr noundef nonnull align 8 dereferenceable(32) %16, ptr noundef nonnull align 8 dereferenceable(32) %17)
  %18 = getelementptr inbounds i8, ptr %0, i64 152
  store i8 0, ptr %18, align 8
  %19 = load i64, ptr %4, align 8
  %20 = load i64, ptr %7, align 8
  %21 = mul i64 %20, %19
  %22 = icmp ugt i64 %21, 2305843009213693951
  %23 = shl i64 %21, 3
  %24 = select i1 %22, i64 -1, i64 %23
  %25 = invoke noalias noundef nonnull ptr @_Znam(i64 noundef %24) #22
          to label %26 unwind label %30

26:                                               ; preds = %2
  %27 = getelementptr inbounds i8, ptr %0, i64 56
  store ptr %25, ptr %27, align 8
  %28 = getelementptr inbounds i8, ptr %1, i64 56
  %29 = load ptr, ptr %28, align 8
  tail call void @llvm.memcpy.p0.p0.i64(ptr nonnull align 8 %25, ptr align 8 %29, i64 %23, i1 false)
  ret void

30:                                               ; preds = %2
  %31 = landingpad { ptr, i32 }
          cleanup
  tail call void @_ZNSt7__cxx1112basic_stringIcSt11char_traitsIcESaIcEED2Ev(ptr noundef nonnull align 8 dereferenceable(32) %16) #20
  resume { ptr, i32 } %31
}